target datalayout = "e-m:e-p270:32:32-p271:32:32-p272:64:64-i64:64-f80:128-n8:16:32:64-S128"
target triple = "x86_64-pc-linux-gnu"

@.str = private unnamed_addr constant [6 x i8] c"%d,%d\00", align 1
@.str.1 = private unnamed_addr constant [3 x i8] c"%d\00", align 1
@.str.2 = private unnamed_addr constant [6 x i8] c"%d+%d\00", align 1
@.str.3 = private unnamed_addr constant [3 x i8] c"No\00", align 1

; Function Attrs: noinline nounwind uwtable
define dso_local i32 @main() #0 {
  %1 = alloca i32, align 4
  %2 = alloca [8 x [8 x i32]], align 16
  %3 = alloca i32, align 4
  %4 = alloca i32, align 4
  %5 = alloca i32, align 4
  %6 = alloca i32, align 4
  %7 = alloca [8 x i32], align 16
  %8 = alloca [8 x i32], align 16
  %9 = alloca i32, align 4
  %10 = alloca [8 x i32], align 16
  %11 = alloca [1 x i32], align 4
  %12 = alloca i32, align 4
  store i32 0, i32* %1, align 4
  store i32 0, i32* %9, align 4
  store i32 0, i32* %12, align 4
  %13 = call i32 (i8*, ...) @__isoc99_scanf(i8* getelementptr inbounds ([6 x i8], [6 x i8]* @.str, i64 0, i64 0), i32* %4, i32* %5)
  store i32 0, i32* %3, align 4
  br label %14

14:                                               ; preds = %35, %0
  %15 = load i32, i32* %3, align 4
  %16 = load i32, i32* %4, align 4
  %17 = icmp slt i32 %15, %16
  br i1 %17, label %18, label %38

18:                                               ; preds = %14
  store i32 0, i32* %6, align 4
  br label %19

19:                                               ; preds = %31, %18
  %20 = load i32, i32* %6, align 4
  %21 = load i32, i32* %5, align 4
  %22 = icmp slt i32 %20, %21
  br i1 %22, label %23, label %34

23:                                               ; preds = %19
  %24 = load i32, i32* %3, align 4
  %25 = sext i32 %24 to i64
  %26 = getelementptr inbounds [8 x [8 x i32]], [8 x [8 x i32]]* %2, i64 0, i64 %25
  %27 = load i32, i32* %6, align 4
  %28 = sext i32 %27 to i64
  %29 = getelementptr inbounds [8 x i32], [8 x i32]* %26, i64 0, i64 %28
  %30 = call i32 (i8*, ...) @__isoc99_scanf(i8* getelementptr inbounds ([3 x i8], [3 x i8]* @.str.1, i64 0, i64 0), i32* %29)
  br label %31

31:                                               ; preds = %23
  %32 = load i32, i32* %6, align 4
  %33 = add nsw i32 %32, 1
  store i32 %33, i32* %6, align 4
  br label %19

34:                                               ; preds = %19
  br label %35

35:                                               ; preds = %34
  %36 = load i32, i32* %3, align 4
  %37 = add nsw i32 %36, 1
  store i32 %37, i32* %3, align 4
  br label %14

38:                                               ; preds = %14
  store i32 0, i32* %3, align 4
  br label %39

39:                                               ; preds = %81, %38
  %40 = load i32, i32* %3, align 4
  %41 = load i32, i32* %4, align 4
  %42 = icmp slt i32 %40, %41
  br i1 %42, label %43, label %84

43:                                               ; preds = %39
  %44 = getelementptr inbounds [1 x i32], [1 x i32]* %11, i64 0, i64 0
  store i32 0, i32* %44, align 4
  store i32 0, i32* %6, align 4
  br label %45

45:                                               ; preds = %72, %43
  %46 = load i32, i32* %6, align 4
  %47 = load i32, i32* %5, align 4
  %48 = icmp slt i32 %46, %47
  br i1 %48, label %49, label %75

49:                                               ; preds = %45
  %50 = load i32, i32* %3, align 4
  %51 = sext i32 %50 to i64
  %52 = getelementptr inbounds [8 x [8 x i32]], [8 x [8 x i32]]* %2, i64 0, i64 %51
  %53 = load i32, i32* %6, align 4
  %54 = sext i32 %53 to i64
  %55 = getelementptr inbounds [8 x i32], [8 x i32]* %52, i64 0, i64 %54
  %56 = load i32, i32* %55, align 4
  %57 = getelementptr inbounds [1 x i32], [1 x i32]* %11, i64 0, i64 0
  %58 = load i32, i32* %57, align 4
  %59 = icmp sgt i32 %56, %58
  br i1 %59, label %60, label %71

60:                                               ; preds = %49
  %61 = load i32, i32* %3, align 4
  %62 = sext i32 %61 to i64
  %63 = getelementptr inbounds [8 x [8 x i32]], [8 x [8 x i32]]* %2, i64 0, i64 %62
  %64 = load i32, i32* %6, align 4
  %65 = sext i32 %64 to i64
  %66 = getelementptr inbounds [8 x i32], [8 x i32]* %63, i64 0, i64 %65
  %67 = load i32, i32* %66, align 4
  %68 = getelementptr inbounds [1 x i32], [1 x i32]* %11, i64 0, i64 0
  store i32 %67, i32* %68, align 4
  %69 = load i32, i32* %6, align 4
  %70 = getelementptr inbounds [1 x i32], [1 x i32]* %11, i64 0, i64 1
  store i32 %69, i32* %70, align 4
  br label %71

71:                                               ; preds = %60, %49
  br label %72

72:                                               ; preds = %71
  %73 = load i32, i32* %6, align 4
  %74 = add nsw i32 %73, 1
  store i32 %74, i32* %6, align 4
  br label %45

75:                                               ; preds = %45
  %76 = getelementptr inbounds [1 x i32], [1 x i32]* %11, i64 0, i64 1
  %77 = load i32, i32* %76, align 4
  %78 = load i32, i32* %3, align 4
  %79 = sext i32 %78 to i64
  %80 = getelementptr inbounds [8 x i32], [8 x i32]* %7, i64 0, i64 %79
  store i32 %77, i32* %80, align 4
  br label %81

81:                                               ; preds = %75
  %82 = load i32, i32* %3, align 4
  %83 = add nsw i32 %82, 1
  store i32 %83, i32* %3, align 4
  br label %39

84:                                               ; preds = %39
  store i32 0, i32* %3, align 4
  br label %85

85:                                               ; preds = %93, %84
  %86 = load i32, i32* %3, align 4
  %87 = load i32, i32* %4, align 4
  %88 = icmp slt i32 %86, %87
  br i1 %88, label %89, label %96

89:                                               ; preds = %85
  %90 = load i32, i32* %3, align 4
  %91 = sext i32 %90 to i64
  %92 = getelementptr inbounds [8 x i32], [8 x i32]* %10, i64 0, i64 %91
  store i32 1, i32* %92, align 4
  br label %93

93:                                               ; preds = %89
  %94 = load i32, i32* %3, align 4
  %95 = add nsw i32 %94, 1
  store i32 %95, i32* %3, align 4
  br label %85

96:                                               ; preds = %85
  store i32 0, i32* %9, align 4
  br label %97

97:                                               ; preds = %153, %96
  %98 = load i32, i32* %9, align 4
  %99 = load i32, i32* %4, align 4
  %100 = icmp slt i32 %98, %99
  br i1 %100, label %101, label %156

101:                                              ; preds = %97
  store i32 0, i32* %3, align 4
  br label %102

102:                                              ; preds = %136, %101
  %103 = load i32, i32* %3, align 4
  %104 = load i32, i32* %4, align 4
  %105 = icmp slt i32 %103, %104
  br i1 %105, label %106, label %139

106:                                              ; preds = %102
  %107 = load i32, i32* %9, align 4
  %108 = sext i32 %107 to i64
  %109 = getelementptr inbounds [8 x [8 x i32]], [8 x [8 x i32]]* %2, i64 0, i64 %108
  %110 = load i32, i32* %9, align 4
  %111 = sext i32 %110 to i64
  %112 = getelementptr inbounds [8 x i32], [8 x i32]* %7, i64 0, i64 %111
  %113 = load i32, i32* %112, align 4
  %114 = sext i32 %113 to i64
  %115 = getelementptr inbounds [8 x i32], [8 x i32]* %109, i64 0, i64 %114
  %116 = load i32, i32* %115, align 4
  %117 = getelementptr inbounds [8 x i32], [8 x i32]* %8, i64 0, i64 0
  store i32 %116, i32* %117, align 16
  %118 = load i32, i32* %3, align 4
  %119 = sext i32 %118 to i64
  %120 = getelementptr inbounds [8 x [8 x i32]], [8 x [8 x i32]]* %2, i64 0, i64 %119
  %121 = load i32, i32* %9, align 4
  %122 = sext i32 %121 to i64
  %123 = getelementptr inbounds [8 x i32], [8 x i32]* %7, i64 0, i64 %122
  %124 = load i32, i32* %123, align 4
  %125 = sext i32 %124 to i64
  %126 = getelementptr inbounds [8 x i32], [8 x i32]* %120, i64 0, i64 %125
  %127 = load i32, i32* %126, align 4
  %128 = getelementptr inbounds [8 x i32], [8 x i32]* %8, i64 0, i64 0
  %129 = load i32, i32* %128, align 16
  %130 = icmp slt i32 %127, %129
  br i1 %130, label %131, label %135

131:                                              ; preds = %106
  %132 = load i32, i32* %9, align 4
  %133 = sext i32 %132 to i64
  %134 = getelementptr inbounds [8 x i32], [8 x i32]* %10, i64 0, i64 %133
  store i32 0, i32* %134, align 4
  br label %139

135:                                              ; preds = %106
  br label %136

136:                                              ; preds = %135
  %137 = load i32, i32* %3, align 4
  %138 = add nsw i32 %137, 1
  store i32 %138, i32* %3, align 4
  br label %102

139:                                              ; preds = %131, %102
  %140 = load i32, i32* %9, align 4
  %141 = sext i32 %140 to i64
  %142 = getelementptr inbounds [8 x i32], [8 x i32]* %10, i64 0, i64 %141
  %143 = load i32, i32* %142, align 4
  %144 = icmp eq i32 %143, 1
  br i1 %144, label %145, label %152

145:                                              ; preds = %139
  %146 = load i32, i32* %9, align 4
  %147 = load i32, i32* %9, align 4
  %148 = sext i32 %147 to i64
  %149 = getelementptr inbounds [8 x i32], [8 x i32]* %7, i64 0, i64 %148
  %150 = load i32, i32* %149, align 4
  %151 = call i32 (i8*, ...) @printf(i8* getelementptr inbounds ([6 x i8], [6 x i8]* @.str.2, i64 0, i64 0), i32 %146, i32 %150)
  br label %156

152:                                              ; preds = %139
  br label %153

153:                                              ; preds = %152
  %154 = load i32, i32* %9, align 4
  %155 = add nsw i32 %154, 1
  store i32 %155, i32* %9, align 4
  br label %97

156:                                              ; preds = %145, %97
  store i32 0, i32* %3, align 4
  br label %157

157:                                              ; preds = %168, %156
  %158 = load i32, i32* %3, align 4
  %159 = load i32, i32* %4, align 4
  %160 = icmp slt i32 %158, %159
  br i1 %160, label %161, label %171

161:                                              ; preds = %157
  %162 = load i32, i32* %3, align 4
  %163 = sext i32 %162 to i64
  %164 = getelementptr inbounds [8 x i32], [8 x i32]* %10, i64 0, i64 %163
  %165 = load i32, i32* %164, align 4
  %166 = load i32, i32* %12, align 4
  %167 = add nsw i32 %166, %165
  store i32 %167, i32* %12, align 4
  br label %168

168:                                              ; preds = %161
  %169 = load i32, i32* %3, align 4
  %170 = add nsw i32 %169, 1
  store i32 %170, i32* %3, align 4
  br label %157

171:                                              ; preds = %157
  %172 = load i32, i32* %12, align 4
  %173 = icmp eq i32 %172, 0
  br i1 %173, label %174, label %176

174:                                              ; preds = %171
  %175 = call i32 (i8*, ...) @printf(i8* getelementptr inbounds ([3 x i8], [3 x i8]* @.str.3, i64 0, i64 0))
  br label %176

176:                                              ; preds = %174, %171
  ret i32 0
}