; Function Attrs: nofree nounwind sspstrong uwtable
define dso_local i32 @main() local_unnamed_addr #0 {
  %1 = alloca [8 x [8 x i32]], align 16
  %2 = alloca i32, align 4
  %3 = alloca i32, align 4
  %4 = alloca [8 x i32], align 16
  %5 = alloca [8 x i32], align 16
  %6 = bitcast [8 x [8 x i32]]* %1 to i8*
  call void @llvm.lifetime.start.p0i8(i64 256, i8* nonnull %6) #4
  %7 = bitcast i32* %2 to i8*
  call void @llvm.lifetime.start.p0i8(i64 4, i8* nonnull %7) #4
  %8 = bitcast i32* %3 to i8*
  call void @llvm.lifetime.start.p0i8(i64 4, i8* nonnull %8) #4
  %9 = bitcast [8 x i32]* %4 to i8*
  call void @llvm.lifetime.start.p0i8(i64 32, i8* nonnull %9) #4
  %10 = bitcast [8 x i32]* %5 to i8*
  call void @llvm.lifetime.start.p0i8(i64 32, i8* nonnull %10) #4
  %11 = call i32 (i8*, ...) @__isoc99_scanf(i8* getelementptr inbounds ([6 x i8], [6 x i8]* @.str, i64 0, i64 0), i32* nonnull %2, i32* nonnull %3)
  %12 = load i32, i32* %2, align 4, !tbaa !5
  %13 = icmp sgt i32 %12, 0
  br i1 %13, label %14, label %254

14:                                               ; preds = %0
  %15 = load i32, i32* %3, align 4, !tbaa !5
  %16 = icmp sgt i32 %15, 0
  br i1 %16, label %17, label %40

17:                                               ; preds = %14, %34
  %18 = phi i32 [ %35, %34 ], [ %12, %14 ]
  %19 = phi i32 [ %36, %34 ], [ %15, %14 ]
  %20 = phi i64 [ %37, %34 ], [ 0, %14 ]
  %21 = icmp sgt i32 %19, 0
  br i1 %21, label %24, label %34

22:                                               ; preds = %34
  %23 = icmp sgt i32 %35, 0
  br i1 %23, label %40, label %254

24:                                               ; preds = %17, %24
  %25 = phi i64 [ %28, %24 ], [ 0, %17 ]
  %26 = getelementptr inbounds [8 x [8 x i32]], [8 x [8 x i32]]* %1, i64 0, i64 %20, i64 %25
  %27 = call i32 (i8*, ...) @__isoc99_scanf(i8* getelementptr inbounds ([3 x i8], [3 x i8]* @.str.1, i64 0, i64 0), i32* nonnull %26)
  %28 = add nuw nsw i64 %25, 1
  %29 = load i32, i32* %3, align 4, !tbaa !5
  %30 = sext i32 %29 to i64
  %31 = icmp slt i64 %28, %30
  br i1 %31, label %24, label %32, !llvm.loop !9

32:                                               ; preds = %24
  %33 = load i32, i32* %2, align 4, !tbaa !5
  br label %34

34:                                               ; preds = %32, %17
  %35 = phi i32 [ %33, %32 ], [ %18, %17 ]
  %36 = phi i32 [ %29, %32 ], [ %19, %17 ]
  %37 = add nuw nsw i64 %20, 1
  %38 = sext i32 %35 to i64
  %39 = icmp slt i64 %37, %38
  br i1 %39, label %17, label %22, !llvm.loop !11

40:                                               ; preds = %22, %14
  %41 = phi i32 [ %12, %14 ], [ %35, %22 ]
  %42 = zext i32 %41 to i64
  %43 = icmp ult i32 %41, 8
  br i1 %43, label %113, label %44

44:                                               ; preds = %40
  %45 = and i64 %42, 4294967288
  %46 = add nsw i64 %45, -8
  %47 = lshr exact i64 %46, 3
  %48 = add nuw nsw i64 %47, 1
  %49 = and i64 %48, 7
  %50 = icmp ult i64 %46, 56
  br i1 %50, label %98, label %51

51:                                               ; preds = %44
  %52 = and i64 %48, 4611686018427387896
  br label %53

53:                                               ; preds = %53, %51
  %54 = phi i64 [ 0, %51 ], [ %95, %53 ]
  %55 = phi i64 [ %52, %51 ], [ %96, %53 ]
  %56 = getelementptr inbounds [8 x i32], [8 x i32]* %5, i64 0, i64 %54
  %57 = bitcast i32* %56 to <4 x i32>*
  store <4 x i32> <i32 1, i32 1, i32 1, i32 1>, <4 x i32>* %57, align 16, !tbaa !5
  %58 = getelementptr inbounds i32, i32* %56, i64 4
  %59 = bitcast i32* %58 to <4 x i32>*
  store <4 x i32> <i32 1, i32 1, i32 1, i32 1>, <4 x i32>* %59, align 16, !tbaa !5
  %60 = or i64 %54, 8
  %61 = getelementptr inbounds [8 x i32], [8 x i32]* %5, i64 0, i64 %60
  %62 = bitcast i32* %61 to <4 x i32>*
  store <4 x i32> <i32 1, i32 1, i32 1, i32 1>, <4 x i32>* %62, align 16, !tbaa !5
  %63 = getelementptr inbounds i32, i32* %61, i64 4
  %64 = bitcast i32* %63 to <4 x i32>*
  store <4 x i32> <i32 1, i32 1, i32 1, i32 1>, <4 x i32>* %64, align 16, !tbaa !5
  %65 = or i64 %54, 16
  %66 = getelementptr inbounds [8 x i32], [8 x i32]* %5, i64 0, i64 %65
  %67 = bitcast i32* %66 to <4 x i32>*
  store <4 x i32> <i32 1, i32 1, i32 1, i32 1>, <4 x i32>* %67, align 16, !tbaa !5
  %68 = getelementptr inbounds i32, i32* %66, i64 4
  %69 = bitcast i32* %68 to <4 x i32>*
  store <4 x i32> <i32 1, i32 1, i32 1, i32 1>, <4 x i32>* %69, align 16, !tbaa !5
  %70 = or i64 %54, 24
  %71 = getelementptr inbounds [8 x i32], [8 x i32]* %5, i64 0, i64 %70
  %72 = bitcast i32* %71 to <4 x i32>*
  store <4 x i32> <i32 1, i32 1, i32 1, i32 1>, <4 x i32>* %72, align 16, !tbaa !5
  %73 = getelementptr inbounds i32, i32* %71, i64 4
  %74 = bitcast i32* %73 to <4 x i32>*
  store <4 x i32> <i32 1, i32 1, i32 1, i32 1>, <4 x i32>* %74, align 16, !tbaa !5
  %75 = or i64 %54, 32
  %76 = getelementptr inbounds [8 x i32], [8 x i32]* %5, i64 0, i64 %75
  %77 = bitcast i32* %76 to <4 x i32>*
  store <4 x i32> <i32 1, i32 1, i32 1, i32 1>, <4 x i32>* %77, align 16, !tbaa !5
  %78 = getelementptr inbounds i32, i32* %76, i64 4
  %79 = bitcast i32* %78 to <4 x i32>*
  store <4 x i32> <i32 1, i32 1, i32 1, i32 1>, <4 x i32>* %79, align 16, !tbaa !5
  %80 = or i64 %54, 40
  %81 = getelementptr inbounds [8 x i32], [8 x i32]* %5, i64 0, i64 %80
  %82 = bitcast i32* %81 to <4 x i32>*
  store <4 x i32> <i32 1, i32 1, i32 1, i32 1>, <4 x i32>* %82, align 16, !tbaa !5
  %83 = getelementptr inbounds i32, i32* %81, i64 4
  %84 = bitcast i32* %83 to <4 x i32>*
  store <4 x i32> <i32 1, i32 1, i32 1, i32 1>, <4 x i32>* %84, align 16, !tbaa !5
  %85 = or i64 %54, 48
  %86 = getelementptr inbounds [8 x i32], [8 x i32]* %5, i64 0, i64 %85
  %87 = bitcast i32* %86 to <4 x i32>*
  store <4 x i32> <i32 1, i32 1, i32 1, i32 1>, <4 x i32>* %87, align 16, !tbaa !5
  %88 = getelementptr inbounds i32, i32* %86, i64 4
  %89 = bitcast i32* %88 to <4 x i32>*
  store <4 x i32> <i32 1, i32 1, i32 1, i32 1>, <4 x i32>* %89, align 16, !tbaa !5
  %90 = or i64 %54, 56
  %91 = getelementptr inbounds [8 x i32], [8 x i32]* %5, i64 0, i64 %90
  %92 = bitcast i32* %91 to <4 x i32>*
  store <4 x i32> <i32 1, i32 1, i32 1, i32 1>, <4 x i32>* %92, align 16, !tbaa !5
  %93 = getelementptr inbounds i32, i32* %91, i64 4
  %94 = bitcast i32* %93 to <4 x i32>*
  store <4 x i32> <i32 1, i32 1, i32 1, i32 1>, <4 x i32>* %94, align 16, !tbaa !5
  %95 = add nuw i64 %54, 64
  %96 = add i64 %55, -8
  %97 = icmp eq i64 %96, 0
  br i1 %97, label %98, label %53, !llvm.loop !13

98:                                               ; preds = %53, %44
  %99 = phi i64 [ 0, %44 ], [ %95, %53 ]
  %100 = icmp eq i64 %49, 0
  br i1 %100, label %111, label %101

101:                                              ; preds = %98, %101
  %102 = phi i64 [ %108, %101 ], [ %99, %98 ]
  %103 = phi i64 [ %109, %101 ], [ %49, %98 ]
  %104 = getelementptr inbounds [8 x i32], [8 x i32]* %5, i64 0, i64 %102
  %105 = bitcast i32* %104 to <4 x i32>*
  store <4 x i32> <i32 1, i32 1, i32 1, i32 1>, <4 x i32>* %105, align 16, !tbaa !5
  %106 = getelementptr inbounds i32, i32* %104, i64 4
  %107 = bitcast i32* %106 to <4 x i32>*
  store <4 x i32> <i32 1, i32 1, i32 1, i32 1>, <4 x i32>* %107, align 16, !tbaa !5
  %108 = add nuw i64 %102, 8
  %109 = add i64 %103, -1
  %110 = icmp eq i64 %109, 0
  br i1 %110, label %111, label %101, !llvm.loop !15

111:                                              ; preds = %101, %98
  %112 = icmp eq i64 %45, %42
  br i1 %112, label %115, label %113

113:                                              ; preds = %40, %111
  %114 = phi i64 [ 0, %40 ], [ %45, %111 ]
  br label %141

115:                                              ; preds = %141, %111
  %116 = zext i32 %41 to i64
  br label %117

117:                                              ; preds = %115, %138
  %118 = phi i64 [ 0, %115 ], [ %139, %138 ]
  %119 = getelementptr inbounds [8 x i32], [8 x i32]* %4, i64 0, i64 %118
  %120 = load i32, i32* %119, align 4, !tbaa !5
  %121 = sext i32 %120 to i64
  %122 = getelementptr inbounds [8 x [8 x i32]], [8 x [8 x i32]]* %1, i64 0, i64 %118, i64 %121
  %123 = load i32, i32* %122, align 4, !tbaa !5
  br label %126

124:                                              ; preds = %126
  %125 = icmp eq i64 %131, %116
  br i1 %125, label %134, label %126, !llvm.loop !17

126:                                              ; preds = %117, %124
  %127 = phi i64 [ 0, %117 ], [ %131, %124 ]
  %128 = getelementptr inbounds [8 x [8 x i32]], [8 x [8 x i32]]* %1, i64 0, i64 %127, i64 %121
  %129 = load i32, i32* %128, align 4, !tbaa !5
  %130 = icmp slt i32 %129, %123
  %131 = add nuw nsw i64 %127, 1
  br i1 %130, label %132, label %124

132:                                              ; preds = %126
  %133 = getelementptr inbounds [8 x i32], [8 x i32]* %5, i64 0, i64 %118
  store i32 0, i32* %133, align 4, !tbaa !5
  br label %138

134:                                              ; preds = %124
  %135 = getelementptr inbounds [8 x i32], [8 x i32]* %5, i64 0, i64 %118
  %136 = load i32, i32* %135, align 4, !tbaa !5
  %137 = icmp eq i32 %136, 1
  br i1 %137, label %146, label %138

138:                                              ; preds = %132, %134
  %139 = add nuw nsw i64 %118, 1
  %140 = icmp eq i64 %139, %116
  br i1 %140, label %153, label %117, !llvm.loop !18

141:                                              ; preds = %113, %141
  %142 = phi i64 [ %144, %141 ], [ %114, %113 ]
  %143 = getelementptr inbounds [8 x i32], [8 x i32]* %5, i64 0, i64 %142
  store i32 1, i32* %143, align 4, !tbaa !5
  %144 = add nuw nsw i64 %142, 1
  %145 = icmp eq i64 %144, %42
  br i1 %145, label %115, label %141, !llvm.loop !19

146:                                              ; preds = %134
  %147 = trunc i64 %118 to i32
  %148 = and i64 %118, 4294967295
  %149 = getelementptr inbounds [8 x i32], [8 x i32]* %4, i64 0, i64 %148
  %150 = load i32, i32* %149, align 4, !tbaa !5
  %151 = call i32 (i8*, ...) @printf(i8* nonnull dereferenceable(1) getelementptr inbounds ([6 x i8], [6 x i8]* @.str.2, i64 0, i64 0), i32 %147, i32 %150)
  %152 = load i32, i32* %2, align 4, !tbaa !5
  br label %153

153:                                              ; preds = %138, %146
  %154 = phi i32 [ %152, %146 ], [ %41, %138 ]
  %155 = icmp sgt i32 %154, 0
  br i1 %155, label %156, label %254

156:                                              ; preds = %153
  %157 = zext i32 %154 to i64
  %158 = icmp ult i32 %154, 8
  br i1 %158, label %240, label %159

159:                                              ; preds = %156
  %160 = and i64 %157, 4294967288
  %161 = add nsw i64 %160, -8
  %162 = lshr exact i64 %161, 3
  %163 = add nuw nsw i64 %162, 1
  %164 = and i64 %163, 3
  %165 = icmp ult i64 %161, 24
  br i1 %165, label %211, label %166

166:                                              ; preds = %159
  %167 = and i64 %163, 4611686018427387900
  br label %168

168:                                              ; preds = %168, %166
  %169 = phi i64 [ 0, %166 ], [ %208, %168 ]
  %170 = phi <4 x i32> [ zeroinitializer, %166 ], [ %206, %168 ]
  %171 = phi <4 x i32> [ zeroinitializer, %166 ], [ %207, %168 ]
  %172 = phi i64 [ %167, %166 ], [ %209, %168 ]
  %173 = getelementptr inbounds [8 x i32], [8 x i32]* %5, i64 0, i64 %169
  %174 = bitcast i32* %173 to <4 x i32>*
  %175 = load <4 x i32>, <4 x i32>* %174, align 16, !tbaa !5
  %176 = getelementptr inbounds i32, i32* %173, i64 4
  %177 = bitcast i32* %176 to <4 x i32>*
  %178 = load <4 x i32>, <4 x i32>* %177, align 16, !tbaa !5
  %179 = add <4 x i32> %175, %170
  %180 = add <4 x i32> %178, %171
  %181 = or i64 %169, 8
  %182 = getelementptr inbounds [8 x i32], [8 x i32]* %5, i64 0, i64 %181
  %183 = bitcast i32* %182 to <4 x i32>*
  %184 = load <4 x i32>, <4 x i32>* %183, align 16, !tbaa !5
  %185 = getelementptr inbounds i32, i32* %182, i64 4
  %186 = bitcast i32* %185 to <4 x i32>*
  %187 = load <4 x i32>, <4 x i32>* %186, align 16, !tbaa !5
  %188 = add <4 x i32> %184, %179
  %189 = add <4 x i32> %187, %180
  %190 = or i64 %169, 16
  %191 = getelementptr inbounds [8 x i32], [8 x i32]* %5, i64 0, i64 %190
  %192 = bitcast i32* %191 to <4 x i32>*
  %193 = load <4 x i32>, <4 x i32>* %192, align 16, !tbaa !5
  %194 = getelementptr inbounds i32, i32* %191, i64 4
  %195 = bitcast i32* %194 to <4 x i32>*
  %196 = load <4 x i32>, <4 x i32>* %195, align 16, !tbaa !5
  %197 = add <4 x i32> %193, %188
  %198 = add <4 x i32> %196, %189
  %199 = or i64 %169, 24
  %200 = getelementptr inbounds [8 x i32], [8 x i32]* %5, i64 0, i64 %199
  %201 = bitcast i32* %200 to <4 x i32>*
  %202 = load <4 x i32>, <4 x i32>* %201, align 16, !tbaa !5
  %203 = getelementptr inbounds i32, i32* %200, i64 4
  %204 = bitcast i32* %203 to <4 x i32>*
  %205 = load <4 x i32>, <4 x i32>* %204, align 16, !tbaa !5
  %206 = add <4 x i32> %202, %197
  %207 = add <4 x i32> %205, %198
  %208 = add nuw i64 %169, 32
  %209 = add i64 %172, -4
  %210 = icmp eq i64 %209, 0
  br i1 %210, label %211, label %168, !llvm.loop !21

211:                                              ; preds = %168, %159
  %212 = phi <4 x i32> [ undef, %159 ], [ %206, %168 ]
  %213 = phi <4 x i32> [ undef, %159 ], [ %207, %168 ]
  %214 = phi i64 [ 0, %159 ], [ %208, %168 ]
  %215 = phi <4 x i32> [ zeroinitializer, %159 ], [ %206, %168 ]
  %216 = phi <4 x i32> [ zeroinitializer, %159 ], [ %207, %168 ]
  %217 = icmp eq i64 %164, 0
  br i1 %217, label %234, label %218

218:                                              ; preds = %211, %218
  %219 = phi i64 [ %231, %218 ], [ %214, %211 ]
  %220 = phi <4 x i32> [ %229, %218 ], [ %215, %211 ]
  %221 = phi <4 x i32> [ %230, %218 ], [ %216, %211 ]
  %222 = phi i64 [ %232, %218 ], [ %164, %211 ]
  %223 = getelementptr inbounds [8 x i32], [8 x i32]* %5, i64 0, i64 %219
  %224 = bitcast i32* %223 to <4 x i32>*
  %225 = load <4 x i32>, <4 x i32>* %224, align 16, !tbaa !5
  %226 = getelementptr inbounds i32, i32* %223, i64 4
  %227 = bitcast i32* %226 to <4 x i32>*
  %228 = load <4 x i32>, <4 x i32>* %227, align 16, !tbaa !5
  %229 = add <4 x i32> %225, %220
  %230 = add <4 x i32> %228, %221
  %231 = add nuw i64 %219, 8
  %232 = add i64 %222, -1
  %233 = icmp eq i64 %232, 0
  br i1 %233, label %234, label %218, !llvm.loop !22

234:                                              ; preds = %218, %211
  %235 = phi <4 x i32> [ %212, %211 ], [ %229, %218 ]
  %236 = phi <4 x i32> [ %213, %211 ], [ %230, %218 ]
  %237 = add <4 x i32> %236, %235
  %238 = call i32 @llvm.vector.reduce.add.v4i32(<4 x i32> %237)
  %239 = icmp eq i64 %160, %157
  br i1 %239, label %251, label %240

240:                                              ; preds = %156, %234
  %241 = phi i64 [ 0, %156 ], [ %160, %234 ]
  %242 = phi i32 [ 0, %156 ], [ %238, %234 ]
  br label %243

243:                                              ; preds = %240, %243
  %244 = phi i64 [ %249, %243 ], [ %241, %240 ]
  %245 = phi i32 [ %248, %243 ], [ %242, %240 ]
  %246 = getelementptr inbounds [8 x i32], [8 x i32]* %5, i64 0, i64 %244
  %247 = load i32, i32* %246, align 4, !tbaa !5
  %248 = add nsw i32 %247, %245
  %249 = add nuw nsw i64 %244, 1
  %250 = icmp eq i64 %249, %157
  br i1 %250, label %251, label %243, !llvm.loop !23

251:                                              ; preds = %243, %234
  %252 = phi i32 [ %238, %234 ], [ %248, %243 ]
  %253 = icmp eq i32 %252, 0
  br i1 %253, label %254, label %256

254:                                              ; preds = %0, %22, %153, %251
  %255 = call i32 (i8*, ...) @printf(i8* nonnull dereferenceable(1) getelementptr inbounds ([3 x i8], [3 x i8]* @.str.3, i64 0, i64 0))
  br label %256

256:                                              ; preds = %254, %251
  call void @llvm.lifetime.end.p0i8(i64 32, i8* nonnull %10) #4
  call void @llvm.lifetime.end.p0i8(i64 32, i8* nonnull %9) #4
  call void @llvm.lifetime.end.p0i8(i64 4, i8* nonnull %8) #4
  call void @llvm.lifetime.end.p0i8(i64 4, i8* nonnull %7) #4
  call void @llvm.lifetime.end.p0i8(i64 256, i8* nonnull %6) #4
  ret i32 0
}